target datalayout = "e-m:e-p270:32:32-p271:32:32-p272:64:64-i64:64-i128:128-f80:128-n8:16:32:64-S128"
target triple = "x86_64-pc-linux-gnu"

@.str = private unnamed_addr constant [74 x i8] c"// %d-bit multiplier-accumulator with constant %d generated by ABC on %s\0A\00", align 1
@.str.1 = private unnamed_addr constant [23 x i8] c"module mulacc%03d%s (\0A\00", align 1
@.str.2 = private unnamed_addr constant [5 x i8] c"_neg\00", align 1
@.str.3 = private unnamed_addr constant [5 x i8] c"_pos\00", align 1
@.str.4 = private unnamed_addr constant [22 x i8] c"    input  [%d:0] i,\0A\00", align 1
@.str.5 = private unnamed_addr constant [22 x i8] c"    input  [%d:0] s,\0A\00", align 1
@.str.6 = private unnamed_addr constant [21 x i8] c"    output [%d:0] o\0A\00", align 1
@.str.7 = private unnamed_addr constant [4 x i8] c");\0A\00", align 1
@.str.8 = private unnamed_addr constant [29 x i8] c"    wire [%d:0] c = %d'h%x;\0A\00", align 1
@.str.9 = private unnamed_addr constant [28 x i8] c"    wire [%d:0] m = i * c;\0A\00", align 1
@.str.10 = private unnamed_addr constant [24 x i8] c"    assign o = s %c m;\0A\00", align 1
@.str.11 = private unnamed_addr constant [12 x i8] c"endmodule\0A\0A\00", align 1

; Function Attrs: inlinehint nounwind uwtable
define internal i32 @Abc_AbsInt(i32 noundef %0) #4 {
  %2 = alloca i32, align 4
  store i32 %0, ptr %2, align 4, !tbaa !8
  %3 = load i32, ptr %2, align 4, !tbaa !8
  %4 = icmp slt i32 %3, 0
  br i1 %4, label %5, label %8

5:                                                ; preds = %1
  %6 = load i32, ptr %2, align 4, !tbaa !8
  %7 = sub nsw i32 0, %6
  br label %10

8:                                                ; preds = %1
  %9 = load i32, ptr %2, align 4, !tbaa !8
  br label %10

10:                                               ; preds = %8, %5
  %11 = phi i32 [ %7, %5 ], [ %9, %8 ]
  ret i32 %11
}

; Function Attrs: nounwind uwtable
define void @Macc_ConstMultSpecOne2(ptr noundef %0, i32 noundef %1, i32 noundef %2, i32 noundef %3) #0 {
  %5 = alloca ptr, align 8
  %6 = alloca i32, align 4
  %7 = alloca i32, align 4
  %8 = alloca i32, align 4
  %9 = alloca i32, align 4
  %10 = alloca i32, align 4
  store ptr %0, ptr %5, align 8, !tbaa !3
  store i32 %1, ptr %6, align 4, !tbaa !8
  store i32 %2, ptr %7, align 4, !tbaa !8
  store i32 %3, ptr %8, align 4, !tbaa !8
  call void @llvm.lifetime.start.p0(i64 4, ptr %9) #9
  %11 = load i32, ptr %8, align 4, !tbaa !8
  %12 = load i32, ptr %7, align 4, !tbaa !8
  %13 = add nsw i32 %11, %12
  store i32 %13, ptr %9, align 4, !tbaa !8
  call void @llvm.lifetime.start.p0(i64 4, ptr %10) #9
  %14 = load i32, ptr %7, align 4, !tbaa !8
  %15 = sub nsw i32 %14, 1
  %16 = shl i32 1, %15
  store i32 %16, ptr %10, align 4, !tbaa !8
  %17 = load ptr, ptr %5, align 8, !tbaa !3
  %18 = load i32, ptr %9, align 4, !tbaa !8
  %19 = load i32, ptr %6, align 4, !tbaa !8
  %20 = call ptr (...) @Extra_TimeStamp()
  %21 = call i32 (ptr, ptr, ...) @fprintf(ptr noundef %17, ptr noundef @.str, i32 noundef %18, i32 noundef %19, ptr noundef %20) #9
  %22 = load ptr, ptr %5, align 8, !tbaa !3
  %23 = load i32, ptr %6, align 4, !tbaa !8
  %24 = call i32 @Abc_AbsInt(i32 noundef %23)
  %25 = load i32, ptr %6, align 4, !tbaa !8
  %26 = icmp slt i32 %25, 0
  %27 = select i1 %26, ptr @.str.2, ptr @.str.3
  %28 = call i32 (ptr, ptr, ...) @fprintf(ptr noundef %22, ptr noundef @.str.1, i32 noundef %24, ptr noundef %27) #9
  %29 = load ptr, ptr %5, align 8, !tbaa !3
  %30 = load i32, ptr %9, align 4, !tbaa !8
  %31 = sub nsw i32 %30, 1
  %32 = call i32 (ptr, ptr, ...) @fprintf(ptr noundef %29, ptr noundef @.str.4, i32 noundef %31) #9
  %33 = load ptr, ptr %5, align 8, !tbaa !3
  %34 = load i32, ptr %9, align 4, !tbaa !8
  %35 = sub nsw i32 %34, 1
  %36 = call i32 (ptr, ptr, ...) @fprintf(ptr noundef %33, ptr noundef @.str.5, i32 noundef %35) #9
  %37 = load ptr, ptr %5, align 8, !tbaa !3
  %38 = load i32, ptr %9, align 4, !tbaa !8
  %39 = sub nsw i32 %38, 1
  %40 = call i32 (ptr, ptr, ...) @fprintf(ptr noundef %37, ptr noundef @.str.6, i32 noundef %39) #9
  %41 = load ptr, ptr %5, align 8, !tbaa !3
  %42 = call i32 (ptr, ptr, ...) @fprintf(ptr noundef %41, ptr noundef @.str.7) #9
  %43 = load ptr, ptr %5, align 8, !tbaa !3
  %44 = load i32, ptr %9, align 4, !tbaa !8
  %45 = sub nsw i32 %44, 1
  %46 = load i32, ptr %9, align 4, !tbaa !8
  %47 = load i32, ptr %6, align 4, !tbaa !8
  %48 = call i32 @Abc_AbsInt(i32 noundef %47)
  %49 = call i32 (ptr, ptr, ...) @fprintf(ptr noundef %43, ptr noundef @.str.8, i32 noundef %45, i32 noundef %46, i32 noundef %48) #9
  %50 = load ptr, ptr %5, align 8, !tbaa !3
  %51 = load i32, ptr %9, align 4, !tbaa !8
  %52 = sub nsw i32 %51, 1
  %53 = call i32 (ptr, ptr, ...) @fprintf(ptr noundef %50, ptr noundef @.str.9, i32 noundef %52) #9
  %54 = load ptr, ptr %5, align 8, !tbaa !3
  %55 = load i32, ptr %6, align 4, !tbaa !8
  %56 = icmp slt i32 %55, 0
  %57 = select i1 %56, i32 45, i32 43
  %58 = call i32 (ptr, ptr, ...) @fprintf(ptr noundef %54, ptr noundef @.str.10, i32 noundef %57) #9
  %59 = load ptr, ptr %5, align 8, !tbaa !3
  %60 = call i32 (ptr, ptr, ...) @fprintf(ptr noundef %59, ptr noundef @.str.11) #9
  call void @llvm.lifetime.end.p0(i64 4, ptr %10) #9
  call void @llvm.lifetime.end.p0(i64 4, ptr %9) #9
  ret void
}