; Function Attrs: nounwind uwtable
define void @Macc_ConstMultSpecOne2(ptr noundef captures(none) %0, i32 noundef %1, i32 noundef %2, i32 noundef %3) local_unnamed_addr #0 {
  %5 = add nsw i32 %3, %2
  %6 = tail call ptr (...) @Extra_TimeStamp() #12
  %7 = tail call i32 (ptr, ptr, ...) @fprintf(ptr noundef %0, ptr noundef nonnull @.str, i32 noundef %5, i32 noundef %1, ptr noundef %6) #12
  %8 = tail call range(i32 0, -2147483648) i32 @llvm.abs.i32(i32 %1, i1 true)
  %9 = icmp slt i32 %1, 0
  %10 = select i1 %9, ptr @.str.2, ptr @.str.3
  %11 = tail call i32 (ptr, ptr, ...) @fprintf(ptr noundef %0, ptr noundef nonnull @.str.1, i32 noundef %8, ptr noundef nonnull %10) #12
  %12 = add nsw i32 %5, -1
  %13 = tail call i32 (ptr, ptr, ...) @fprintf(ptr noundef %0, ptr noundef nonnull @.str.4, i32 noundef %12) #12
  %14 = tail call i32 (ptr, ptr, ...) @fprintf(ptr noundef %0, ptr noundef nonnull @.str.5, i32 noundef %12) #12
  %15 = tail call i32 (ptr, ptr, ...) @fprintf(ptr noundef %0, ptr noundef nonnull @.str.6, i32 noundef %12) #12
  %16 = tail call i64 @fwrite(ptr nonnull @.str.7, i64 3, i64 1, ptr %0)
  %17 = tail call i32 (ptr, ptr, ...) @fprintf(ptr noundef %0, ptr noundef nonnull @.str.8, i32 noundef %12, i32 noundef %5, i32 noundef %8) #12
  %18 = tail call i32 (ptr, ptr, ...) @fprintf(ptr noundef %0, ptr noundef nonnull @.str.9, i32 noundef %12) #12
  %19 = select i1 %9, i32 45, i32 43
  %20 = tail call i32 (ptr, ptr, ...) @fprintf(ptr noundef %0, ptr noundef nonnull @.str.10, i32 noundef %19) #12
  %21 = tail call i64 @fwrite(ptr nonnull @.str.11, i64 11, i64 1, ptr %0)
  ret void
}